; Function Attrs: noreturn nounwind uwtable
define void @_zend_bailout(ptr nocapture noundef readnone %0, i32 noundef %1) local_unnamed_addr #12 {
  %3 = load ptr, ptr getelementptr inbounds (%struct._zend_executor_globals, ptr @executor_globals, i64 0, i32 7), align 8
  %.not = icmp eq ptr %3, null
  br i1 %.not, label %4, label %5

4:                                                ; preds = %2
  tail call void @exit(i32 noundef -1) #34
  unreachable

5:                                                ; preds = %2
  %6 = tail call zeroext i1 @gc_protect(i1 noundef zeroext true) #30
  store i8 1, ptr getelementptr inbounds (%struct._zend_compiler_globals, ptr @compiler_globals, i64 0, i32 11), align 1
  store ptr null, ptr getelementptr inbounds (%struct._zend_compiler_globals, ptr @compiler_globals, i64 0, i32 1), align 8
  store i8 0, ptr getelementptr inbounds (%struct._zend_compiler_globals, ptr @compiler_globals, i64 0, i32 9), align 1
  store i32 0, ptr getelementptr inbounds (%struct._zend_compiler_globals, ptr @compiler_globals, i64 0, i32 35), align 8
  store ptr null, ptr getelementptr inbounds (%struct._zend_executor_globals, ptr @executor_globals, i64 0, i32 17), align 8
  %7 = load ptr, ptr getelementptr inbounds (%struct._zend_executor_globals, ptr @executor_globals, i64 0, i32 7), align 8
  tail call void @siglongjmp(ptr noundef %7, i32 noundef -1) #34
  unreachable
}